; Function Attrs: nounwind uwtable
define void @Pf_ManPrintStats(ptr noundef readonly captures(none) %0, ptr noundef %1) local_unnamed_addr #0 {
  %3 = alloca %struct.timespec, align 8
  %4 = getelementptr inbounds nuw i8, ptr %0, i64 8
  %5 = load ptr, ptr %4, align 8, !tbaa !96
  %6 = getelementptr inbounds nuw i8, ptr %5, i64 136
  %7 = load i32, ptr %6, align 8, !tbaa !160
  %.not = icmp eq i32 %7, 0
  br i1 %.not, label %50, label %8

8:                                                ; preds = %2
  %9 = tail call i32 (ptr, ...) @printf(ptr noundef nonnull dereferenceable(1) @.str.9, ptr noundef %1)
  %10 = load ptr, ptr %4, align 8, !tbaa !96
  %11 = getelementptr inbounds nuw i8, ptr %10, i64 224
  %12 = load i32, ptr %11, align 8, !tbaa !161
  %13 = sitofp i32 %12 to float
  %14 = fpext float %13 to double
  %15 = tail call i32 (ptr, ...) @printf(ptr noundef nonnull dereferenceable(1) @.str.10, double noundef %14)
  %16 = load ptr, ptr %4, align 8, !tbaa !96
  %17 = getelementptr inbounds nuw i8, ptr %16, i64 228
  %18 = load float, ptr %17, align 4, !tbaa !162
  %19 = fpext float %18 to double
  %20 = tail call i32 (ptr, ...) @printf(ptr noundef nonnull dereferenceable(1) @.str.11, double noundef %19)
  %21 = load ptr, ptr %4, align 8, !tbaa !96
  %22 = getelementptr inbounds nuw i8, ptr %21, i64 168
  %23 = load i64, ptr %22, align 8, !tbaa !163
  %24 = trunc i64 %23 to i32
  %25 = tail call i32 (ptr, ...) @printf(ptr noundef nonnull dereferenceable(1) @.str.12, i32 noundef %24)
  %26 = getelementptr inbounds nuw i8, ptr %0, i64 132
  %27 = load i32, ptr %26, align 4, !tbaa !164
  %28 = tail call i32 (ptr, ...) @printf(ptr noundef nonnull dereferenceable(1) @.str.13, i32 noundef %27)
  %29 = load ptr, ptr %4, align 8, !tbaa !96
  %30 = getelementptr inbounds nuw i8, ptr %29, i64 176
  %31 = load i64, ptr %30, align 8, !tbaa !165
  %32 = trunc i64 %31 to i32
  %33 = tail call i32 (ptr, ...) @printf(ptr noundef nonnull dereferenceable(1) @.str.14, i32 noundef %32)
  call void @llvm.lifetime.start.p0(i64 16, ptr nonnull %3) #23
  %34 = call i32 @clock_gettime(i32 noundef 1, ptr noundef nonnull %3) #23
  %35 = icmp slt i32 %34, 0
  br i1 %35, label %Abc_Clock.exit, label %36

36:                                               ; preds = %8
  %37 = load i64, ptr %3, align 8, !tbaa !91
  %38 = mul nsw i64 %37, 1000000
  %39 = getelementptr inbounds nuw i8, ptr %3, i64 8
  %40 = load i64, ptr %39, align 8, !tbaa !93
  %41 = sdiv i64 %40, 1000
  %42 = add nsw i64 %41, %38
  br label %Abc_Clock.exit

Abc_Clock.exit:                                   ; preds = %8, %36
  %.0.i = phi i64 [ %42, %36 ], [ -1, %8 ]
  call void @llvm.lifetime.end.p0(i64 16, ptr nonnull %3) #23
  %43 = getelementptr inbounds nuw i8, ptr %0, i64 144
  %44 = load i64, ptr %43, align 8, !tbaa !94
  %45 = sub nsw i64 %.0.i, %44
  call void (i32, ptr, ...) @Abc_Print(i32 poison, ptr noundef nonnull @.str.39, ptr noundef nonnull @.str.15)
  %46 = sitofp i64 %45 to double
  %47 = fdiv double %46, 1.000000e+06
  call void (i32, ptr, ...) @Abc_Print(i32 poison, ptr noundef nonnull @.str.40, double noundef %47)
  %48 = load ptr, ptr @stdout, align 8, !tbaa !166
  %49 = call i32 @fflush(ptr noundef %48)
  br label %50

50:                                               ; preds = %2, %Abc_Clock.exit
  ret void
}